; ModuleID = '25/1017.c'
source_filename = "25/1017.c"
target datalayout = "e-m:e-p270:32:32-p271:32:32-p272:64:64-i64:64-f80:128-n8:16:32:64-S128"
target triple = "x86_64-pc-linux-gnu"

@__const.main.res = private unnamed_addr constant [32 x i8] c"0000000000000000000000000000001\00", align 16
@.str = private unnamed_addr constant [3 x i8] c"%d\00", align 1
@.str.1 = private unnamed_addr constant [4 x i8] c"%s\0A\00", align 1

; Function Attrs: noinline nounwind uwtable
define dso_local i32 @main() #0 {
  %1 = alloca i32, align 4
  %2 = alloca [32 x i8], align 16
  %3 = alloca i32, align 4
  %4 = alloca i32, align 4
  %5 = alloca i32, align 4
  %6 = alloca i32, align 4
  %7 = alloca i32, align 4
  store i32 0, i32* %1, align 4
  %8 = bitcast [32 x i8]* %2 to i8*
  call void @llvm.memcpy.p0i8.p0i8.i64(i8* align 16 %8, i8* align 16 getelementptr inbounds ([32 x i8], [32 x i8]* @__const.main.res, i32 0, i32 0), i64 32, i1 false)
  store i32 0, i32* %4, align 4
  store i32 0, i32* %6, align 4
  %9 = call i32 (i8*, ...) @__isoc99_scanf(i8* getelementptr inbounds ([3 x i8], [3 x i8]* @.str, i64 0, i64 0), i32* %3)
  br label %10

10:                                               ; preds = %41, %0
  %11 = load i32, i32* %4, align 4
  %12 = load i32, i32* %3, align 4
  %13 = icmp slt i32 %11, %12
  br i1 %13, label %14, label %44

14:                                               ; preds = %10
  store i32 30, i32* %5, align 4
  br label %15

15:                                               ; preds = %37, %14
  %16 = load i32, i32* %5, align 4
  %17 = icmp sge i32 %16, 0
  br i1 %17, label %18, label %40

18:                                               ; preds = %15
  %19 = load i32, i32* %5, align 4
  %20 = sext i32 %19 to i64
  %21 = getelementptr inbounds [32 x i8], [32 x i8]* %2, i64 0, i64 %20
  %22 = load i8, i8* %21, align 1
  %23 = sext i8 %22 to i32
  %24 = sub nsw i32 %23, 48
  %25 = mul nsw i32 %24, 2
  %26 = load i32, i32* %6, align 4
  %27 = add nsw i32 %25, %26
  store i32 %27, i32* %7, align 4
  %28 = load i32, i32* %7, align 4
  %29 = srem i32 %28, 10
  %30 = add nsw i32 %29, 48
  %31 = trunc i32 %30 to i8
  %32 = load i32, i32* %5, align 4
  %33 = sext i32 %32 to i64
  %34 = getelementptr inbounds [32 x i8], [32 x i8]* %2, i64 0, i64 %33
  store i8 %31, i8* %34, align 1
  %35 = load i32, i32* %7, align 4
  %36 = sdiv i32 %35, 10
  store i32 %36, i32* %6, align 4
  br label %37

37:                                               ; preds = %18
  %38 = load i32, i32* %5, align 4
  %39 = add nsw i32 %38, -1
  store i32 %39, i32* %5, align 4
  br label %15

40:                                               ; preds = %15
  br label %41

41:                                               ; preds = %40
  %42 = load i32, i32* %4, align 4
  %43 = add nsw i32 %42, 1
  store i32 %43, i32* %4, align 4
  br label %10

44:                                               ; preds = %10
  store i32 0, i32* %4, align 4
  br label %45

45:                                               ; preds = %58, %44
  %46 = load i32, i32* %4, align 4
  %47 = icmp slt i32 %46, 31
  br i1 %47, label %48, label %55

48:                                               ; preds = %45
  %49 = load i32, i32* %4, align 4
  %50 = sext i32 %49 to i64
  %51 = getelementptr inbounds [32 x i8], [32 x i8]* %2, i64 0, i64 %50
  %52 = load i8, i8* %51, align 1
  %53 = sext i8 %52 to i32
  %54 = icmp eq i32 %53, 48
  br label %55

55:                                               ; preds = %48, %45
  %56 = phi i1 [ false, %45 ], [ %54, %48 ]
  br i1 %56, label %57, label %61

57:                                               ; preds = %55
  br label %58

58:                                               ; preds = %57
  %59 = load i32, i32* %4, align 4
  %60 = add nsw i32 %59, 1
  store i32 %60, i32* %4, align 4
  br label %45

61:                                               ; preds = %55
  %62 = load i32, i32* %4, align 4
  store i32 %62, i32* %5, align 4
  br label %63

63:                                               ; preds = %76, %61
  %64 = load i32, i32* %5, align 4
  %65 = icmp slt i32 %64, 31
  br i1 %65, label %66, label %79

66:                                               ; preds = %63
  %67 = load i32, i32* %5, align 4
  %68 = sext i32 %67 to i64
  %69 = getelementptr inbounds [32 x i8], [32 x i8]* %2, i64 0, i64 %68
  %70 = load i8, i8* %69, align 1
  %71 = load i32, i32* %5, align 4
  %72 = load i32, i32* %4, align 4
  %73 = sub nsw i32 %71, %72
  %74 = sext i32 %73 to i64
  %75 = getelementptr inbounds [32 x i8], [32 x i8]* %2, i64 0, i64 %74
  store i8 %70, i8* %75, align 1
  br label %76

76:                                               ; preds = %66
  %77 = load i32, i32* %5, align 4
  %78 = add nsw i32 %77, 1
  store i32 %78, i32* %5, align 4
  br label %63

79:                                               ; preds = %63
  %80 = load i32, i32* %5, align 4
  %81 = load i32, i32* %4, align 4
  %82 = sub nsw i32 %80, %81
  %83 = sext i32 %82 to i64
  %84 = getelementptr inbounds [32 x i8], [32 x i8]* %2, i64 0, i64 %83
  store i8 0, i8* %84, align 1
  %85 = getelementptr inbounds [32 x i8], [32 x i8]* %2, i64 0, i64 0
  %86 = call i32 (i8*, ...) @printf(i8* getelementptr inbounds ([4 x i8], [4 x i8]* @.str.1, i64 0, i64 0), i8* %85)
  ret i32 0
}

; Function Attrs: argmemonly nounwind willreturn
declare void @llvm.memcpy.p0i8.p0i8.i64(i8* noalias nocapture writeonly, i8* noalias nocapture readonly, i64, i1 immarg) #1

declare dso_local i32 @__isoc99_scanf(i8*, ...) #2

declare dso_local i32 @printf(i8*, ...) #2


!llvm.module.flags = !{!0}
!llvm.ident = !{!1}

!0 = !{i32 1, !"wchar_size", i32 4}
!1 = !{!"clang version 10.0.0-4ubuntu1 "}
